; Function Attrs: nounwind uwtable
define double @N_VMaxNorm_SensWrapper(ptr noundef readonly captures(none) %0) #0 {
  %2 = load ptr, ptr %0, align 8, !tbaa !39
  %3 = getelementptr inbounds nuw i8, ptr %2, i64 8
  %4 = load i32, ptr %3, align 8, !tbaa !33
  %5 = icmp sgt i32 %4, 0
  br i1 %5, label %.lr.ph, label %._crit_edge

.lr.ph:                                           ; preds = %1, %.lr.ph
  %indvars.iv = phi i64 [ %indvars.iv.next, %.lr.ph ], [ 0, %1 ]
  %6 = phi ptr [ %12, %.lr.ph ], [ %2, %1 ]
  %.0810 = phi double [ %.1, %.lr.ph ], [ 0.000000e+00, %1 ]
  %7 = load ptr, ptr %6, align 8, !tbaa !38
  %8 = getelementptr inbounds nuw ptr, ptr %7, i64 %indvars.iv
  %9 = load ptr, ptr %8, align 8, !tbaa !40
  %10 = tail call double @N_VMaxNorm(ptr noundef %9) #7
  %11 = fcmp ogt double %10, %.0810
  %.1 = select i1 %11, double %10, double %.0810
  %indvars.iv.next = add nuw nsw i64 %indvars.iv, 1
  %12 = load ptr, ptr %0, align 8, !tbaa !39
  %13 = getelementptr inbounds nuw i8, ptr %12, i64 8
  %14 = load i32, ptr %13, align 8, !tbaa !33
  %15 = sext i32 %14 to i64
  %16 = icmp slt i64 %indvars.iv.next, %15
  br i1 %16, label %.lr.ph, label %._crit_edge

._crit_edge:                                      ; preds = %.lr.ph, %1
  %.08.lcssa = phi double [ 0.000000e+00, %1 ], [ %.1, %.lr.ph ]
  ret double %.08.lcssa
}